MPASM 5.84                   BUBBLE_SORT.ASM   10-22-2025  19:00:18         PAGE  1


LOC  OBJECT CODE     LINE SOURCE TEXT
  VALUE

                      00001 ;=============================
                      00002 ; Usage
                      00003 ;=============================
                      00004 ;main:
                      00005 ; ====== Prepare three source lists ======
                      00006 ;  LFSR    0, 0x010
                      00007 ;  MOVLF   0x01, POSTINC0
                      00008 ;  MOVLF   0x04, POSTINC0
                      00009 ;  MOVLF   0x07, POSTINC0
                      00010 ;  MOVLF   0x02, POSTINC0
                      00011 ;  MOVLF   0x03, POSTINC0
                      00012 ;  MOVLF   0x09, POSTINC0
                      00013 ;  MOVLF   0x05, POSTINC0
                      00014 ;  MOVLF   0x06, POSTINC0
                      00015 ;  MOVLF   0x08, POSTINC0
                      00016 ;  
                      00017 ;  MOVLF 0xFF, 0x20
                      00018 ; ====== Sort merged data ======
                      00019 ;  MOVLW   0x09
                      00020 ;  MOVWF   len, ACCESS
                      00021 ;  MOVLW   0x10
                      00022 ;  MOVWF   baseL, ACCESS
                      00023 ;
                      00024 ;  RCALL   bubble_sort
                      00025 ;=============================  
                      00026     
                      00027     
                      00028     
                      00029 ;=============================
                      00030 ; VARIABLES
                      00031 ;=============================
                      00032     
Warning[207]: Found label after column 1. (max)
  00000030            00033  max EQU 0x30
Warning[207]: Found label after column 1. (baseL)
  00000031            00034  baseL EQU 0x31
Warning[207]: Found label after column 1. (len)
  00000032            00035  len EQU 0x32
Warning[207]: Found label after column 1. (upr)
  00000033            00036  upr EQU 0x33
Warning[207]: Found label after column 1. (j)
  00000034            00037  j EQU 0x34
Warning[207]: Found label after column 1. (temp)
  00000035            00038  temp EQU 0x35
Warning[207]: Found label after column 1. (swapped)
  00000036            00039  swapped EQU 0x36
Warning[207]: Found label after column 1. (status_tmp)
  00000037            00040  status_tmp EQU 0x37
Warning[207]: Found label after column 1. (bsr_tmp)
  00000038            00041  bsr_tmp EQU 0x38
Warning[207]: Found label after column 1. (w_tmp)
  00000039            00042  w_tmp EQU 0x39
                      00043 
MPASM 5.84                   BUBBLE_SORT.ASM   10-22-2025  19:00:18         PAGE  2


LOC  OBJECT CODE     LINE SOURCE TEXT
  VALUE

Error[150]  : Labels must be defined in a code or data section when making an object file
000000                00044 bubble_sort:
                      00045     ; ---- Save context ----
Error[113]  : Symbol not previously defined (WREG)
Error[152]  : Executable code and data must be defined in an appropriate section
Error[152]  : Executable code and data must be defined in an appropriate section
000000                00046     MOVFF   WREG, w_tmp
Error[113]  : Symbol not previously defined (STATUS)
Error[152]  : Executable code and data must be defined in an appropriate section
Error[152]  : Executable code and data must be defined in an appropriate section
000000                00047     MOVFF   STATUS, status_tmp
Error[113]  : Symbol not previously defined (BSR)
Error[152]  : Executable code and data must be defined in an appropriate section
Error[152]  : Executable code and data must be defined in an appropriate section
000000                00048     MOVFF   BSR, bsr_tmp
Error[113]  : Symbol not previously defined (BSR)
Error[152]  : Executable code and data must be defined in an appropriate section
000000                00049     CLRF    BSR                 ; keep direct addressing consistent
                      00050 
Error[152]  : Executable code and data must be defined in an appropriate section
000000                00051     MOVLB 0x02
                      00052     ; ---- Trivial cases: len <= 1 ----
Error[113]  : Symbol not previously defined (ACCESS)
Error[152]  : Executable code and data must be defined in an appropriate section
000000                00053     MOVF    len, W, ACCESS
Error[151]  : Operand contains unresolvable labels or is too complex
Error[152]  : Executable code and data must be defined in an appropriate section
000000                00054     BZ      bs_restore
Error[113]  : Symbol not previously defined (ACCESS)
Error[152]  : Executable code and data must be defined in an appropriate section
000000                00055     MOVF    len, W, ACCESS
Error[152]  : Executable code and data must be defined in an appropriate section
000000                00056     XORLW   0x01
Error[151]  : Operand contains unresolvable labels or is too complex
Error[152]  : Executable code and data must be defined in an appropriate section
000000                00057     BZ      bs_restore
                      00058 
                      00059     ; upr = len - 1
Error[113]  : Symbol not previously defined (ACCESS)
Error[152]  : Executable code and data must be defined in an appropriate section
000000                00060     MOVF    len, W, ACCESS
Error[152]  : Executable code and data must be defined in an appropriate section
000000                00061     ADDLW   0xFF
Error[113]  : Symbol not previously defined (ACCESS)
Error[152]  : Executable code and data must be defined in an appropriate section
000000                00062     MOVWF   upr, ACCESS
                      00063 
Error[150]  : Labels must be defined in a code or data section when making an object file
000000                00064 bs_outer:
Error[113]  : Symbol not previously defined (ACCESS)
Error[152]  : Executable code and data must be defined in an appropriate section
000000                00065     CLRF    swapped, ACCESS
                      00066 
MPASM 5.84                   BUBBLE_SORT.ASM   10-22-2025  19:00:18         PAGE  3


LOC  OBJECT CODE     LINE SOURCE TEXT
  VALUE

                      00067     ; FSR0 = baseL, FSR1 = baseL + 1
Error[113]  : Symbol not previously defined (FSR0H)
Error[113]  : Symbol not previously defined (ACCESS)
Error[152]  : Executable code and data must be defined in an appropriate section
000000                00068     CLRF    FSR0H, ACCESS
Error[113]  : Symbol not previously defined (ACCESS)
Error[152]  : Executable code and data must be defined in an appropriate section
000000                00069     MOVF    baseL, W, ACCESS
Error[113]  : Symbol not previously defined (FSR0L)
Error[113]  : Symbol not previously defined (ACCESS)
Error[152]  : Executable code and data must be defined in an appropriate section
000000                00070     MOVWF   FSR0L, ACCESS
                      00071 
Error[113]  : Symbol not previously defined (FSR1H)
Error[113]  : Symbol not previously defined (ACCESS)
Error[152]  : Executable code and data must be defined in an appropriate section
000000                00072     CLRF    FSR1H, ACCESS
Error[113]  : Symbol not previously defined (ACCESS)
Error[152]  : Executable code and data must be defined in an appropriate section
000000                00073     MOVF    baseL, W, ACCESS
Error[152]  : Executable code and data must be defined in an appropriate section
000000                00074     ADDLW   0x01
Error[113]  : Symbol not previously defined (FSR1L)
Error[113]  : Symbol not previously defined (ACCESS)
Error[152]  : Executable code and data must be defined in an appropriate section
000000                00075     MOVWF   FSR1L, ACCESS
                      00076 
                      00077     ; j = upr
Error[113]  : Symbol not previously defined (ACCESS)
Error[152]  : Executable code and data must be defined in an appropriate section
000000                00078     MOVF    upr, W, ACCESS
Error[113]  : Symbol not previously defined (ACCESS)
Error[152]  : Executable code and data must be defined in an appropriate section
000000                00079     MOVWF   j, ACCESS
                      00080 
Error[150]  : Labels must be defined in a code or data section when making an object file
000000                00081 bs_inner:
                      00082     ; if j == 0 ? this pass done
Error[113]  : Symbol not previously defined (ACCESS)
Error[152]  : Executable code and data must be defined in an appropriate section
000000                00083     MOVF    j, W, ACCESS
Error[151]  : Operand contains unresolvable labels or is too complex
Error[152]  : Executable code and data must be defined in an appropriate section
000000                00084     BZ      bs_pass_done
                      00085 
                      00086     ; Compare adjacent: if *FSR1 < *FSR0 then swap
Error[113]  : Symbol not previously defined (INDF0)
Error[113]  : Symbol not previously defined (ACCESS)
Error[152]  : Executable code and data must be defined in an appropriate section
000000                00087     MOVF    INDF0, W, ACCESS
Error[113]  : Symbol not previously defined (INDF1)
Error[113]  : Symbol not previously defined (ACCESS)
Error[152]  : Executable code and data must be defined in an appropriate section
MPASM 5.84                   BUBBLE_SORT.ASM   10-22-2025  19:00:18         PAGE  4


LOC  OBJECT CODE     LINE SOURCE TEXT
  VALUE

000000                00088     SUBWF   INDF1, W, ACCESS
Error[113]  : Symbol not previously defined (C)
Error[113]  : Symbol not previously defined (STATUS)
Error[152]  : Executable code and data must be defined in an appropriate section
000000                00089     BTFSC   STATUS, C
Error[151]  : Operand contains unresolvable labels or is too complex
Error[152]  : Executable code and data must be defined in an appropriate section
000000                00090     BRA     bs_no_swap
                      00091 
                      00092     ; swap(*FSR0, *FSR1)
Error[113]  : Symbol not previously defined (INDF0)
Error[113]  : Symbol not previously defined (ACCESS)
Error[152]  : Executable code and data must be defined in an appropriate section
000000                00093     MOVF    INDF0, W, ACCESS
Error[113]  : Symbol not previously defined (ACCESS)
Error[152]  : Executable code and data must be defined in an appropriate section
000000                00094     MOVWF   temp, ACCESS
Error[113]  : Symbol not previously defined (INDF1)
Error[113]  : Symbol not previously defined (ACCESS)
Error[152]  : Executable code and data must be defined in an appropriate section
000000                00095     MOVF    INDF1, W, ACCESS
Error[113]  : Symbol not previously defined (INDF0)
Error[113]  : Symbol not previously defined (ACCESS)
Error[152]  : Executable code and data must be defined in an appropriate section
000000                00096     MOVWF   INDF0, ACCESS
Error[113]  : Symbol not previously defined (ACCESS)
Error[152]  : Executable code and data must be defined in an appropriate section
000000                00097     MOVF    temp, W, ACCESS
Error[113]  : Symbol not previously defined (INDF1)
Error[113]  : Symbol not previously defined (ACCESS)
Error[152]  : Executable code and data must be defined in an appropriate section
000000                00098     MOVWF   INDF1, ACCESS
Error[152]  : Executable code and data must be defined in an appropriate section
000000                00099     MOVLW   0x01
Error[113]  : Symbol not previously defined (ACCESS)
Error[152]  : Executable code and data must be defined in an appropriate section
000000                00100     MOVWF   swapped, ACCESS
                      00101 
Error[150]  : Labels must be defined in a code or data section when making an object file
000000                00102 bs_no_swap:
Error[113]  : Symbol not previously defined (FSR0L)
Error[113]  : Symbol not previously defined (ACCESS)
Error[152]  : Executable code and data must be defined in an appropriate section
000000                00103     INCF    FSR0L, F, ACCESS
Error[113]  : Symbol not previously defined (FSR1L)
Error[113]  : Symbol not previously defined (ACCESS)
Error[152]  : Executable code and data must be defined in an appropriate section
000000                00104     INCF    FSR1L, F, ACCESS
Error[113]  : Symbol not previously defined (ACCESS)
Error[152]  : Executable code and data must be defined in an appropriate section
000000                00105     DECF    j, F, ACCESS
Error[151]  : Operand contains unresolvable labels or is too complex
Error[152]  : Executable code and data must be defined in an appropriate section
MPASM 5.84                   BUBBLE_SORT.ASM   10-22-2025  19:00:18         PAGE  5


LOC  OBJECT CODE     LINE SOURCE TEXT
  VALUE

000000                00106     BRA     bs_inner
                      00107 
Error[150]  : Labels must be defined in a code or data section when making an object file
000000                00108 bs_pass_done:
                      00109     ; if no swaps ? already sorted
Error[113]  : Symbol not previously defined (ACCESS)
Error[152]  : Executable code and data must be defined in an appropriate section
000000                00110     MOVF    swapped, W, ACCESS
Error[151]  : Operand contains unresolvable labels or is too complex
Error[152]  : Executable code and data must be defined in an appropriate section
000000                00111     BZ      bs_restore
                      00112 
                      00113     ; shrink upr; if upr == 0 ? done
Error[113]  : Symbol not previously defined (ACCESS)
Error[152]  : Executable code and data must be defined in an appropriate section
000000                00114     DECF    upr, F, ACCESS
Error[113]  : Symbol not previously defined (ACCESS)
Error[152]  : Executable code and data must be defined in an appropriate section
000000                00115     MOVF    upr, W, ACCESS
Error[151]  : Operand contains unresolvable labels or is too complex
Error[152]  : Executable code and data must be defined in an appropriate section
000000                00116     BNZ     bs_outer
                      00117 
Error[150]  : Labels must be defined in a code or data section when making an object file
000000                00118 bs_restore:
                      00119     ; ---- Restore context ----
Error[152]  : Executable code and data must be defined in an appropriate section
Error[113]  : Symbol not previously defined (BSR)
Error[152]  : Executable code and data must be defined in an appropriate section
000000                00120     MOVFF   bsr_tmp, BSR
Error[152]  : Executable code and data must be defined in an appropriate section
Error[113]  : Symbol not previously defined (STATUS)
Error[152]  : Executable code and data must be defined in an appropriate section
000000                00121     MOVFF   status_tmp, STATUS
Error[152]  : Executable code and data must be defined in an appropriate section
Error[113]  : Symbol not previously defined (WREG)
Error[152]  : Executable code and data must be defined in an appropriate section
000000                00122     MOVFF   w_tmp, WREG
Error[152]  : Executable code and data must be defined in an appropriate section
000000                00123     RETURN
Error[129]  : Expected (END)
MPASM 5.84                   BUBBLE_SORT.ASM   10-22-2025  19:00:18         PAGE  6


SYMBOL TABLE
  LABEL                             VALUE 

__18F4520                         00000001
__DEBUG                           
__MPLAB_DEBUGGER_SIMULATOR        1
baseL                             00000031
bs_inner                          00000000
bs_no_swap                        00000000
bs_outer                          00000000
bs_pass_done                      00000000
bs_restore                        00000000
bsr_tmp                           00000038
bubble_sort                       00000000
j                                 00000034
len                               00000032
max                               00000030
status_tmp                        00000037
swapped                           00000036
temp                              00000035
upr                               00000033
w_tmp                             00000039

Errors   :   120
Warnings :    10 reported,     0 suppressed
Messages :     0 reported,     0 suppressed

